; Function Attrs: nounwind sspstrong uwtable
define internal fastcc noundef ptr @new_find_pattern_tail(ptr noundef captures(none) %0, ptr noundef %1, ptr noundef %2, ptr noundef %3, ptr noundef nonnull readonly captures(none) %4) unnamed_addr #0 {
  %.not = icmp eq ptr %1, null
  %6 = select i1 %.not, ptr inttoptr (i64 -1 to ptr), ptr %1
  %.not10 = icmp eq ptr %3, null
  %7 = select i1 %.not10, ptr inttoptr (i64 -1 to ptr), ptr %3
  %8 = getelementptr i8, ptr %0, i64 288
  %.val.i.i = load ptr, ptr %8, align 8, !tbaa !130
  %9 = tail call ptr @rb_ast_newnode(ptr noundef %.val.i.i, i32 noundef range(i32 0, 115) 107, i64 noundef range(i64 32, 129) 64, i64 noundef 8) #35
  tail call void @rb_node_init(ptr noundef %9, i32 noundef range(i32 0, 115) 107) #35
  %10 = getelementptr inbounds nuw i8, ptr %9, i64 8
  tail call void @llvm.memcpy.p0.p0.i64(ptr noundef nonnull align 8 dereferenceable(16) %10, ptr noundef nonnull readonly align 4 dereferenceable(16) %4, i64 16, i1 false), !tbaa.struct !59
  %11 = load i32, ptr %4, align 4, !tbaa !53
  %12 = sext i32 %11 to i64
  %13 = load i64, ptr %9, align 8, !tbaa !72
  %14 = and i64 %13, 32767
  %15 = shl nsw i64 %12, 15
  %16 = or disjoint i64 %14, %15
  store i64 %16, ptr %9, align 8, !tbaa !72
  %17 = getelementptr inbounds nuw i8, ptr %0, i64 296
  %18 = load i32, ptr %17, align 8, !tbaa !207
  %19 = add i32 %18, 1
  store i32 %19, ptr %17, align 8, !tbaa !207
  %20 = getelementptr inbounds nuw i8, ptr %9, i64 24
  store i32 %18, ptr %20, align 8, !tbaa !208
  %21 = getelementptr inbounds nuw i8, ptr %9, i64 32
  store ptr null, ptr %21, align 8, !tbaa !166
  %22 = getelementptr inbounds nuw i8, ptr %9, i64 40
  store ptr %6, ptr %22, align 8, !tbaa !436
  %23 = getelementptr inbounds nuw i8, ptr %9, i64 48
  store ptr %2, ptr %23, align 8, !tbaa !437
  %24 = getelementptr inbounds nuw i8, ptr %9, i64 56
  store ptr %7, ptr %24, align 8, !tbaa !438
  ret ptr %9
}